; Function Attrs: nounwind uwtable
define range(i32 0, 2) i32 @CMS_final_digest(ptr noundef %0, ptr noundef %1, i32 noundef %2, ptr noundef %3, i32 noundef %4) local_unnamed_addr #0 {
  %6 = tail call ptr @CMS_dataInit(ptr noundef %0, ptr noundef %3) #4
  %7 = icmp eq ptr %6, null
  br i1 %7, label %8, label %9

8:                                                ; preds = %5
  tail call void @ERR_new() #4
  tail call void @ERR_set_debug(ptr noundef nonnull @.str, i32 noundef 938, ptr noundef nonnull @__func__.CMS_final_digest) #4
  tail call void (i32, i32, ptr, ...) @ERR_set_error(i32 noundef 46, i32 noundef 104, ptr noundef null) #4
  br label %do_free_upto.exit

9:                                                ; preds = %5
  %10 = tail call i64 @BIO_ctrl(ptr noundef nonnull %6, i32 noundef 11, i64 noundef 0, ptr noundef null) #4
  %11 = tail call i32 @ossl_cms_DataFinal(ptr noundef %0, ptr noundef nonnull %6, ptr noundef %1, i32 noundef %2) #4
  %.not = icmp eq i32 %11, 0
  br i1 %.not, label %12, label %13

12:                                               ; preds = %9
  tail call void @ERR_new() #4
  tail call void @ERR_set_debug(ptr noundef nonnull @.str, i32 noundef 945, ptr noundef nonnull @__func__.CMS_final_digest) #4
  tail call void (i32, i32, ptr, ...) @ERR_set_error(i32 noundef 46, i32 noundef 103, ptr noundef null) #4
  br label %13

13:                                               ; preds = %9, %12
  %.0 = phi i32 [ 0, %12 ], [ 1, %9 ]
  %.not.i = icmp eq ptr %3, null
  br i1 %.not.i, label %19, label %.preheader.i

.preheader.i:                                     ; preds = %13, %.preheader.i
  %.0.i = phi ptr [ %14, %.preheader.i ], [ %6, %13 ]
  %14 = tail call ptr @BIO_pop(ptr noundef nonnull %.0.i) #4
  %15 = tail call i32 @BIO_free(ptr noundef nonnull %.0.i) #4
  %16 = icmp ne ptr %14, null
  %17 = icmp ne ptr %14, %3
  %18 = and i1 %16, %17
  br i1 %18, label %.preheader.i, label %do_free_upto.exit, !llvm.loop !3

19:                                               ; preds = %13
  tail call void @BIO_free_all(ptr noundef nonnull %6) #4
  br label %do_free_upto.exit

do_free_upto.exit:                                ; preds = %.preheader.i, %19, %8
  %.010 = phi i32 [ 0, %8 ], [ %.0, %19 ], [ %.0, %.preheader.i ]
  ret i32 %.010
}